Certificate:
    Data:
        Version: 3 (0x2)
        Serial Number: 1 (0x1)
        Signature Algorithm: sha256WithRSAEncryption
        Issuer: O=Test Org, CN=Test Org rauc CA Development
        Validity
            Not Before: Jan  1 00:00:00 1970 GMT
            Not After : Dec 31 23:59:59 9999 GMT
        Subject: O=Test Org, CN=Test Org rauc CA Development
        Subject Public Key Info:
            Public Key Algorithm: rsaEncryption
                RSA Public-Key: (2048 bit)
                Modulus:
                    00:dc:85:d3:1a:52:c0:32:8f:1c:56:a4:20:24:1f:
                    cf:76:79:5b:5b:6f:5a:c5:b6:3d:fe:fb:d4:e4:e7:
                    e5:c5:13:37:d7:90:39:2f:8d:10:30:92:d3:72:2c:
                    47:48:ed:46:02:a8:f6:67:a4:1c:a7:8c:61:62:55:
                    e3:8e:2a:33:98:86:ff:21:fa:5f:ec:64:b4:ad:71:
                    56:33:fa:c4:52:a5:f2:8e:ae:87:ad:ca:f7:80:ea:
                    ad:99:f8:c2:bf:37:25:1f:b2:48:a1:4b:4b:e7:b0:
                    c1:48:55:9b:47:3b:fa:8e:a2:c9:e2:76:8c:0b:38:
                    7d:df:21:f9:c7:4b:64:6c:b4:87:37:a8:21:c1:3c:
                    3b:af:80:f1:fd:07:39:73:ea:4b:f8:b4:4b:08:37:
                    03:85:26:59:07:f0:70:23:be:42:b8:ce:72:1d:42:
                    20:10:1c:6c:64:ba:9f:fc:41:70:e8:70:38:af:c9:
                    ff:48:3b:3a:54:ad:42:b3:0d:d3:06:df:56:ad:03:
                    6e:cb:ed:f9:26:e8:1b:97:e6:39:f6:71:25:c2:d1:
                    31:f3:74:9f:0b:d3:9f:2b:ae:62:5a:a7:98:d4:e4:
                    ef:92:d4:e7:ef:cd:5a:a9:dc:18:a2:6b:a3:10:75:
                    01:b4:c7:c8:23:13:e3:47:79:6b:59:75:9d:08:79:
                    7e:83
                Exponent: 65537 (0x10001)
        X509v3 extensions:
            X509v3 Subject Key Identifier: 
                C4:96:ED:20:17:D6:EB:56:17:A8:75:80:A3:59:B9:79:65:2E:6F:2A
            X509v3 Authority Key Identifier: 
                keyid:C4:96:ED:20:17:D6:EB:56:17:A8:75:80:A3:59:B9:79:65:2E:6F:2A
                DirName:/O=Test Org/CN=Test Org rauc CA Development
                serial:01

            X509v3 Basic Constraints: 
                CA:TRUE
    Signature Algorithm: sha256WithRSAEncryption
         c8:d5:b9:cb:3e:9b:47:63:fd:14:85:1d:06:43:32:79:fe:13:
         1b:51:0c:31:f9:82:bf:41:77:ba:80:92:76:1a:08:a3:d4:00:
         ad:b4:33:90:d5:0c:36:6c:a4:cb:4b:eb:ad:de:7c:c5:5e:d6:
         27:d7:ac:cf:2d:ed:b0:12:be:4f:e9:56:ed:40:d0:7d:38:46:
         ad:21:a2:d6:05:50:e3:4d:1d:30:99:22:eb:c6:ad:6b:a9:bc:
         33:ed:5a:f1:2c:ed:c3:ab:61:94:c3:65:05:af:1b:57:98:b7:
         30:db:eb:9d:0e:08:f6:5a:37:c6:11:cd:a0:d5:3b:60:1f:d7:
         6b:92:a3:a4:bc:ad:07:85:82:19:27:22:60:a0:a3:d6:32:d4:
         93:0d:bb:34:89:bb:aa:16:03:8d:3e:d0:cc:a7:fd:92:2b:ce:
         5c:90:d9:db:8a:3e:f0:32:aa:60:09:e8:95:77:65:b8:2d:58:
         d5:3b:b2:fb:ae:c3:fa:35:06:a1:dc:84:3b:c3:cd:45:09:e4:
         45:9d:a6:af:70:95:9e:f3:35:c0:54:96:e5:83:42:f7:c5:b1:
         8d:86:d7:5e:38:95:45:03:31:01:ed:59:8e:74:a6:ac:70:d2:
         4a:84:f8:aa:94:8a:68:0f:e3:2d:36:8e:d4:96:2d:c4:fe:72:
         b4:5f:b5:01
-----BEGIN CERTIFICATE-----
MIIDhjCCAm6gAwIBAgIBATANBgkqhkiG9w0BAQsFADA6MREwDwYDVQQKDAhUZXN0
IE9yZzElMCMGA1UEAwwcVGVzdCBPcmcgcmF1YyBDQSBEZXZlbG9wbWVudDAgFw03
MDAxMDEwMDAwMDBaGA85OTk5MTIzMTIzNTk1OVowOjERMA8GA1UECgwIVGVzdCBP
cmcxJTAjBgNVBAMMHFRlc3QgT3JnIHJhdWMgQ0EgRGV2ZWxvcG1lbnQwggEiMA0G
CSqGSIb3DQEBAQUAA4IBDwAwggEKAoIBAQDchdMaUsAyjxxWpCAkH892eVtbb1rF
tj3++9Tk5+XFEzfXkDkvjRAwktNyLEdI7UYCqPZnpBynjGFiVeOOKjOYhv8h+l/s
ZLStcVYz+sRSpfKOroetyveA6q2Z+MK/NyUfskihS0vnsMFIVZtHO/qOosnidowL
OH3fIfnHS2RstIc3qCHBPDuvgPH9Bzlz6kv4tEsINwOFJlkH8HAjvkK4znIdQiAQ
HGxkup/8QXDocDivyf9IOzpUrUKzDdMG31atA27L7fkm6BuX5jn2cSXC0THzdJ8L
058rrmJap5jU5O+S1OfvzVqp3Biia6MQdQG0x8gjE+NHeWtZdZ0IeX6DAgMBAAGj
gZQwgZEwHQYDVR0OBBYEFMSW7SAX1utWF6h1gKNZuXllLm8qMGIGA1UdIwRbMFmA
FMSW7SAX1utWF6h1gKNZuXllLm8qoT6kPDA6MREwDwYDVQQKDAhUZXN0IE9yZzEl
MCMGA1UEAwwcVGVzdCBPcmcgcmF1YyBDQSBEZXZlbG9wbWVudIIBATAMBgNVHRME
BTADAQH/MA0GCSqGSIb3DQEBCwUAA4IBAQDI1bnLPptHY/0UhR0GQzJ5/hMbUQwx
+YK/QXe6gJJ2Ggij1ACttDOQ1Qw2bKTLS+ut3nzFXtYn16zPLe2wEr5P6VbtQNB9
OEatIaLWBVDjTR0wmSLrxq1rqbwz7VrxLO3Dq2GUw2UFrxtXmLcw2+udDgj2WjfG
Ec2g1TtgH9drkqOkvK0HhYIZJyJgoKPWMtSTDbs0ibuqFgONPtDMp/2SK85ckNnb
ij7wMqpgCeiVd2W4LVjVO7L7rsP6NQah3IQ7w81FCeRFnaavcJWe8zXAVJblg0L3
xbGNhtdeOJVFAzEB7VmOdKascNJKhPiqlIpoD+MtNo7Uli3E/nK0X7UB
-----END CERTIFICATE-----
