Certificate:
    Data:
        Version: 3 (0x2)
        Serial Number: 2 (0x2)
        Signature Algorithm: sha256WithRSAEncryption
        Issuer: O=Test Org, CN=Test Org rauc CA Development
        Validity
            Not Before: Jan  1 00:00:00 1970 GMT
            Not After : Dec 31 23:59:59 9999 GMT
        Subject: O=Test Org, CN=Test Org Development-1
        Subject Public Key Info:
            Public Key Algorithm: rsaEncryption
                RSA Public-Key: (2048 bit)
                Modulus:
                    00:b7:47:f1:65:79:f7:ed:c3:09:26:46:1a:99:1e:
                    99:1b:da:2e:57:a0:11:fb:3d:68:12:fe:a3:b1:dd:
                    df:84:4b:b1:21:7f:d9:bf:64:c1:d8:8d:c0:7d:23:
                    b4:05:bd:b0:2f:22:ce:9d:a6:7d:b2:0a:b7:7d:2a:
                    8d:db:ab:b7:b1:d8:9c:2b:62:68:87:dd:ba:83:18:
                    48:4e:5a:ee:7b:7a:7c:f2:fd:ac:97:a6:72:34:c6:
                    05:68:ee:7b:a9:56:b7:41:08:f8:74:68:5d:03:b9:
                    36:e9:57:fb:3d:42:4b:93:f5:52:fe:5f:17:a7:d3:
                    e4:48:6e:63:78:c0:57:63:cf:96:69:c5:9b:a2:65:
                    b4:7c:9f:e9:92:a9:26:5e:80:81:b7:a7:e2:fa:a9:
                    79:3b:a7:24:cc:00:52:6f:59:0d:25:c2:31:7d:13:
                    57:b4:e4:22:4e:50:e3:cd:19:2f:e9:6a:3c:ac:06:
                    b5:77:b0:6d:ec:ed:26:9e:62:47:b6:75:96:4e:c0:
                    83:3e:dd:b4:89:38:10:7e:bc:77:04:76:0c:50:0c:
                    4b:52:a4:be:ce:95:65:64:0e:0b:5c:dc:55:a4:23:
                    a8:cf:28:e8:38:24:a6:19:cc:30:ae:01:19:02:35:
                    f8:63:f4:d1:45:76:be:c6:13:90:e9:81:d9:1e:9e:
                    26:8d
                Exponent: 65537 (0x10001)
        X509v3 extensions:
            X509v3 Subject Key Identifier: 
                06:03:30:83:4C:4F:C8:E2:A7:3F:56:0F:74:63:92:C9:21:7E:05:E0
            X509v3 Authority Key Identifier: 
                keyid:C4:96:ED:20:17:D6:EB:56:17:A8:75:80:A3:59:B9:79:65:2E:6F:2A
                DirName:/O=Test Org/CN=Test Org rauc CA Development
                serial:01

            X509v3 Basic Constraints: 
                CA:FALSE
    Signature Algorithm: sha256WithRSAEncryption
         23:da:7d:9b:3b:0a:48:09:2d:ac:45:7b:ae:f6:e6:96:7a:6c:
         56:9d:73:93:98:5b:f4:74:eb:94:a8:bc:f8:53:f7:7f:47:52:
         a2:1e:c6:2f:e8:bb:3c:28:32:7b:50:77:af:79:97:ff:20:a7:
         73:ed:8a:aa:bf:2d:a1:e6:04:5d:e2:85:bf:ef:e2:c9:8d:7a:
         49:3f:4c:89:47:d2:00:eb:3a:71:ce:b5:3b:2a:b6:df:d4:0b:
         ba:13:1a:dd:cb:3b:60:5d:9f:3b:a9:f2:d2:9c:db:03:4b:13:
         a5:3e:af:1d:28:e4:15:d3:c3:89:e8:06:83:cb:2d:10:4c:1a:
         51:76:e1:2a:fb:7e:66:ed:83:78:aa:78:62:a2:c1:c4:49:5a:
         7a:a0:ff:34:eb:3f:37:ec:73:1a:0b:71:e9:6b:7e:db:a8:31:
         64:93:6f:23:11:c6:8b:05:82:f5:6d:eb:eb:af:e7:ab:3f:20:
         b5:ab:dc:bb:ea:27:0b:17:51:3e:cf:17:c1:31:03:e3:53:3c:
         8a:7d:bd:b7:0b:cd:89:b1:58:66:39:b6:99:69:a3:63:0e:8f:
         03:08:ee:6e:d1:ba:12:66:24:89:42:43:de:93:ba:66:7b:d9:
         e4:87:c0:29:d1:be:e9:16:fe:0a:e6:58:da:d2:94:35:19:d5:
         1d:bf:81:49
-----BEGIN CERTIFICATE-----
MIIDfTCCAmWgAwIBAgIBAjANBgkqhkiG9w0BAQsFADA6MREwDwYDVQQKDAhUZXN0
IE9yZzElMCMGA1UEAwwcVGVzdCBPcmcgcmF1YyBDQSBEZXZlbG9wbWVudDAgFw03
MDAxMDEwMDAwMDBaGA85OTk5MTIzMTIzNTk1OVowNDERMA8GA1UECgwIVGVzdCBP
cmcxHzAdBgNVBAMMFlRlc3QgT3JnIERldmVsb3BtZW50LTEwggEiMA0GCSqGSIb3
DQEBAQUAA4IBDwAwggEKAoIBAQC3R/FlefftwwkmRhqZHpkb2i5XoBH7PWgS/qOx
3d+ES7Ehf9m/ZMHYjcB9I7QFvbAvIs6dpn2yCrd9Ko3bq7ex2JwrYmiH3bqDGEhO
Wu57enzy/ayXpnI0xgVo7nupVrdBCPh0aF0DuTbpV/s9QkuT9VL+Xxen0+RIbmN4
wFdjz5ZpxZuiZbR8n+mSqSZegIG3p+L6qXk7pyTMAFJvWQ0lwjF9E1e05CJOUOPN
GS/pajysBrV3sG3s7SaeYke2dZZOwIM+3bSJOBB+vHcEdgxQDEtSpL7OlWVkDgtc
3FWkI6jPKOg4JKYZzDCuARkCNfhj9NFFdr7GE5DpgdkeniaNAgMBAAGjgZEwgY4w
HQYDVR0OBBYEFAYDMINMT8jipz9WD3RjkskhfgXgMGIGA1UdIwRbMFmAFMSW7SAX
1utWF6h1gKNZuXllLm8qoT6kPDA6MREwDwYDVQQKDAhUZXN0IE9yZzElMCMGA1UE
AwwcVGVzdCBPcmcgcmF1YyBDQSBEZXZlbG9wbWVudIIBATAJBgNVHRMEAjAAMA0G
CSqGSIb3DQEBCwUAA4IBAQAj2n2bOwpICS2sRXuu9uaWemxWnXOTmFv0dOuUqLz4
U/d/R1KiHsYv6Ls8KDJ7UHeveZf/IKdz7Yqqvy2h5gRd4oW/7+LJjXpJP0yJR9IA
6zpxzrU7Krbf1Au6ExrdyztgXZ87qfLSnNsDSxOlPq8dKOQV08OJ6AaDyy0QTBpR
duEq+35m7YN4qnhiosHESVp6oP806z837HMaC3Hpa37bqDFkk28jEcaLBYL1bevr
r+erPyC1q9y76icLF1E+zxfBMQPjUzyKfb23C82JsVhmObaZaaNjDo8DCO5u0boS
ZiSJQkPek7pme9nkh8Ap0b7pFv4K5lja0pQ1GdUdv4FJ
-----END CERTIFICATE-----
