Certificate:
    Data:
        Version: 3 (0x2)
        Serial Number: 1 (0x1)
        Signature Algorithm: sha256WithRSAEncryption
        Issuer: O=Test Org, CN=Test Org rauc CA Development
        Validity
            Not Before: Jan  1 00:00:00 1970 GMT
            Not After : Dec 31 23:59:59 9999 GMT
        Subject: O=Test Org, CN=Test Org rauc CA Development
        Subject Public Key Info:
            Public Key Algorithm: rsaEncryption
                RSA Public-Key: (2048 bit)
                Modulus:
                    00:d6:cd:e3:ca:f2:5b:5d:38:d5:9a:48:e3:8d:c4:
                    4f:d2:91:06:ac:28:ea:53:be:f0:1a:91:e8:c9:95:
                    20:ff:c2:b1:a5:a7:55:07:ce:1c:80:0a:e5:53:9c:
                    8b:60:97:74:24:27:ce:29:98:a7:68:39:cb:c6:40:
                    69:8b:36:e1:1b:ac:c7:32:e9:7e:4a:5c:d1:03:71:
                    1d:01:2e:31:a1:d9:11:b7:86:42:d4:9e:39:87:7c:
                    ff:7e:d5:7b:9b:7a:9a:b2:c5:eb:98:41:bd:4c:71:
                    f1:f5:65:f6:73:82:b5:0f:76:05:41:f3:15:47:d7:
                    01:97:e2:fb:e8:bb:b5:a5:18:58:aa:d8:48:bb:30:
                    ed:56:f9:c0:d4:9b:59:d9:64:6e:eb:35:6c:95:44:
                    a8:a8:01:b6:61:63:41:da:d4:ab:6e:4c:7c:60:58:
                    58:0c:f1:cf:ca:ad:2f:35:d0:0a:1d:4a:36:7b:6e:
                    4b:d8:b3:f7:c1:6f:ea:c2:ed:e9:d1:05:0e:17:14:
                    40:2e:71:15:ae:32:e8:43:c2:04:7e:26:0f:ec:4b:
                    80:9d:e7:bb:0f:34:2e:a5:63:5f:d4:a4:bf:22:b8:
                    e2:3b:67:d5:03:a3:14:3a:40:5e:85:75:e8:6c:87:
                    19:72:67:c2:11:3e:b3:16:b4:1e:b6:87:11:ba:65:
                    81:01
                Exponent: 65537 (0x10001)
        X509v3 extensions:
            X509v3 Subject Key Identifier: 
                BE:EA:0C:D4:2A:7D:AB:4D:A0:FD:FE:04:B3:08:41:AD:11:1D:49:C9
            X509v3 Authority Key Identifier: 
                keyid:BE:EA:0C:D4:2A:7D:AB:4D:A0:FD:FE:04:B3:08:41:AD:11:1D:49:C9
                DirName:/O=Test Org/CN=Test Org rauc CA Development
                serial:01

            X509v3 Basic Constraints: 
                CA:TRUE
    Signature Algorithm: sha256WithRSAEncryption
         2d:4d:a4:80:17:19:8c:ae:f5:e5:a2:64:59:d1:97:9b:10:fb:
         09:09:0b:41:d9:5a:78:72:61:3a:4b:75:5d:e3:58:8f:72:70:
         00:75:9e:a6:5e:28:b8:c4:4a:b2:40:d3:54:d4:52:df:66:ad:
         17:41:05:96:ca:c8:b3:fb:30:ce:41:fb:9c:9f:94:27:35:e3:
         5f:7b:15:b9:bb:61:0d:79:6c:fe:d9:8a:c6:c2:bd:dd:97:c8:
         0e:ca:3e:31:1a:0c:28:6f:ec:86:08:a8:52:15:bc:bb:4a:80:
         bb:84:5f:be:9a:07:ad:82:ad:6f:1a:a9:72:98:44:24:a8:d3:
         c5:65:4f:15:db:ea:e4:91:6b:8f:05:ec:8f:5b:b3:ef:cf:9a:
         46:10:f4:e8:3e:ac:e8:94:62:7d:6d:1d:7f:6d:e8:f6:b3:67:
         16:24:74:79:9a:b2:1c:95:e0:ad:71:65:1f:a3:47:8d:80:79:
         ec:a6:2a:4c:8d:4f:1b:e9:09:d8:57:5d:87:25:01:9f:f5:af:
         dd:47:67:01:fa:d5:3f:5b:b3:a1:a4:71:6d:d4:55:e0:1a:2e:
         6a:b6:4d:32:25:9a:48:6c:99:cd:4a:0a:61:88:cb:1d:46:02:
         bd:17:7d:e6:01:c3:ed:f7:c6:0a:a2:ef:71:c1:60:6d:36:3f:
         87:ed:78:9d
-----BEGIN CERTIFICATE-----
MIIDhjCCAm6gAwIBAgIBATANBgkqhkiG9w0BAQsFADA6MREwDwYDVQQKDAhUZXN0
IE9yZzElMCMGA1UEAwwcVGVzdCBPcmcgcmF1YyBDQSBEZXZlbG9wbWVudDAgFw03
MDAxMDEwMDAwMDBaGA85OTk5MTIzMTIzNTk1OVowOjERMA8GA1UECgwIVGVzdCBP
cmcxJTAjBgNVBAMMHFRlc3QgT3JnIHJhdWMgQ0EgRGV2ZWxvcG1lbnQwggEiMA0G
CSqGSIb3DQEBAQUAA4IBDwAwggEKAoIBAQDWzePK8ltdONWaSOONxE/SkQasKOpT
vvAakejJlSD/wrGlp1UHzhyACuVTnItgl3QkJ84pmKdoOcvGQGmLNuEbrMcy6X5K
XNEDcR0BLjGh2RG3hkLUnjmHfP9+1XubepqyxeuYQb1McfH1ZfZzgrUPdgVB8xVH
1wGX4vvou7WlGFiq2Ei7MO1W+cDUm1nZZG7rNWyVRKioAbZhY0Ha1KtuTHxgWFgM
8c/KrS810AodSjZ7bkvYs/fBb+rC7enRBQ4XFEAucRWuMuhDwgR+Jg/sS4Cd57sP
NC6lY1/UpL8iuOI7Z9UDoxQ6QF6FdehshxlyZ8IRPrMWtB62hxG6ZYEBAgMBAAGj
gZQwgZEwHQYDVR0OBBYEFL7qDNQqfatNoP3+BLMIQa0RHUnJMGIGA1UdIwRbMFmA
FL7qDNQqfatNoP3+BLMIQa0RHUnJoT6kPDA6MREwDwYDVQQKDAhUZXN0IE9yZzEl
MCMGA1UEAwwcVGVzdCBPcmcgcmF1YyBDQSBEZXZlbG9wbWVudIIBATAMBgNVHRME
BTADAQH/MA0GCSqGSIb3DQEBCwUAA4IBAQAtTaSAFxmMrvXlomRZ0ZebEPsJCQtB
2Vp4cmE6S3Vd41iPcnAAdZ6mXii4xEqyQNNU1FLfZq0XQQWWysiz+zDOQfucn5Qn
NeNfexW5u2ENeWz+2YrGwr3dl8gOyj4xGgwob+yGCKhSFby7SoC7hF++mgetgq1v
GqlymEQkqNPFZU8V2+rkkWuPBeyPW7Pvz5pGEPToPqzolGJ9bR1/bej2s2cWJHR5
mrIcleCtcWUfo0eNgHnspipMjU8b6QnYV12HJQGf9a/dR2cB+tU/W7OhpHFt1FXg
Gi5qtk0yJZpIbJnNSgphiMsdRgK9F33mAcPt98YKou9xwWBtNj+H7Xid
-----END CERTIFICATE-----
